target datalayout = "e-m:e-p270:32:32-p271:32:32-p272:64:64-i64:64-i128:128-f80:128-n8:16:32:64-S128"
target triple = "x86_64-pc-linux-gnu"

%struct.Clu_Man_t_ = type { i32, i32, i32, i32, i32, i32, i32, i32, i32, i32, i32, i32, i32, i32, i32, ptr, ptr, ptr, ptr, i32, i32, i32, ptr, ptr, ptr, i32, i32, i32, i32, ptr, ptr, ptr, i32, i32 }
%struct.Vec_Ptr_t_ = type { i32, i32, ptr }

; Function Attrs: inlinehint nounwind uwtable
define internal ptr @Vec_PtrAllocArray(ptr noundef %0, i32 noundef %1) #2 {
  %3 = alloca ptr, align 8
  %4 = alloca i32, align 4
  %5 = alloca ptr, align 8
  store ptr %0, ptr %3, align 8, !tbaa !113
  store i32 %1, ptr %4, align 4, !tbaa !21
  call void @llvm.lifetime.start.p0(i64 8, ptr %5) #11
  %6 = call noalias ptr @malloc(i64 noundef 16) #12
  store ptr %6, ptr %5, align 8, !tbaa !109
  %7 = load i32, ptr %4, align 4, !tbaa !21
  %8 = load ptr, ptr %5, align 8, !tbaa !109
  %9 = getelementptr inbounds nuw %struct.Vec_Ptr_t_, ptr %8, i32 0, i32 1
  store i32 %7, ptr %9, align 4, !tbaa !110
  %10 = load i32, ptr %4, align 4, !tbaa !21
  %11 = load ptr, ptr %5, align 8, !tbaa !109
  %12 = getelementptr inbounds nuw %struct.Vec_Ptr_t_, ptr %11, i32 0, i32 0
  store i32 %10, ptr %12, align 8, !tbaa !219
  %13 = load ptr, ptr %3, align 8, !tbaa !113
  %14 = load ptr, ptr %5, align 8, !tbaa !109
  %15 = getelementptr inbounds nuw %struct.Vec_Ptr_t_, ptr %14, i32 0, i32 2
  store ptr %13, ptr %15, align 8, !tbaa !112
  %16 = load ptr, ptr %5, align 8, !tbaa !109
  call void @llvm.lifetime.end.p0(i64 8, ptr %5) #11
  ret ptr %16
}

; Function Attrs: inlinehint nounwind uwtable
define internal ptr @Vec_PtrAllocSimInfo(i32 noundef %0, i32 noundef %1) #2 {
  %3 = alloca i32, align 4
  %4 = alloca i32, align 4
  %5 = alloca ptr, align 8
  %6 = alloca ptr, align 8
  %7 = alloca i32, align 4
  store i32 %0, ptr %3, align 4, !tbaa !21
  store i32 %1, ptr %4, align 4, !tbaa !21
  call void @llvm.lifetime.start.p0(i64 8, ptr %5) #11
  call void @llvm.lifetime.start.p0(i64 8, ptr %6) #11
  call void @llvm.lifetime.start.p0(i64 4, ptr %7) #11
  %8 = load i32, ptr %4, align 4, !tbaa !21
  %9 = sext i32 %8 to i64
  %10 = mul i64 4, %9
  %11 = add i64 8, %10
  %12 = load i32, ptr %3, align 4, !tbaa !21
  %13 = sext i32 %12 to i64
  %14 = mul i64 %11, %13
  %15 = mul i64 1, %14
  %16 = call noalias ptr @malloc(i64 noundef %15) #12
  store ptr %16, ptr %5, align 8, !tbaa !113
  %17 = load ptr, ptr %5, align 8, !tbaa !113
  %18 = load i32, ptr %3, align 4, !tbaa !21
  %19 = sext i32 %18 to i64
  %20 = getelementptr inbounds ptr, ptr %17, i64 %19
  store ptr %20, ptr %6, align 8, !tbaa !42
  store i32 0, ptr %7, align 4, !tbaa !21
  br label %21

21:                                               ; preds = %36, %2
  %22 = load i32, ptr %7, align 4, !tbaa !21
  %23 = load i32, ptr %3, align 4, !tbaa !21
  %24 = icmp slt i32 %22, %23
  br i1 %24, label %25, label %39

25:                                               ; preds = %21
  %26 = load ptr, ptr %6, align 8, !tbaa !42
  %27 = load i32, ptr %7, align 4, !tbaa !21
  %28 = load i32, ptr %4, align 4, !tbaa !21
  %29 = mul nsw i32 %27, %28
  %30 = sext i32 %29 to i64
  %31 = getelementptr inbounds i32, ptr %26, i64 %30
  %32 = load ptr, ptr %5, align 8, !tbaa !113
  %33 = load i32, ptr %7, align 4, !tbaa !21
  %34 = sext i32 %33 to i64
  %35 = getelementptr inbounds ptr, ptr %32, i64 %34
  store ptr %31, ptr %35, align 8, !tbaa !113
  br label %36

36:                                               ; preds = %25
  %37 = load i32, ptr %7, align 4, !tbaa !21
  %38 = add nsw i32 %37, 1
  store i32 %38, ptr %7, align 4, !tbaa !21
  br label %21, !llvm.loop !194

39:                                               ; preds = %21
  %40 = load ptr, ptr %5, align 8, !tbaa !113
  %41 = load i32, ptr %3, align 4, !tbaa !21
  %42 = call ptr @Vec_PtrAllocArray(ptr noundef %40, i32 noundef %41)
  call void @llvm.lifetime.end.p0(i64 4, ptr %7) #11
  call void @llvm.lifetime.end.p0(i64 8, ptr %6) #11
  call void @llvm.lifetime.end.p0(i64 8, ptr %5) #11
  ret ptr %42
}

; Function Attrs: inlinehint nounwind uwtable
define internal i32 @Vec_PtrSize(ptr noundef %0) #2 {
  %2 = alloca ptr, align 8
  store ptr %0, ptr %2, align 8, !tbaa !109
  %3 = load ptr, ptr %2, align 8, !tbaa !109
  %4 = getelementptr inbounds nuw %struct.Vec_Ptr_t_, ptr %3, i32 0, i32 1
  %5 = load i32, ptr %4, align 4, !tbaa !110
  ret i32 %5
}

; Function Attrs: inlinehint nounwind uwtable
define internal ptr @Vec_PtrEntry(ptr noundef %0, i32 noundef %1) #2 {
  %3 = alloca ptr, align 8
  %4 = alloca i32, align 4
  store ptr %0, ptr %3, align 8, !tbaa !109
  store i32 %1, ptr %4, align 4, !tbaa !21
  %5 = load ptr, ptr %3, align 8, !tbaa !109
  %6 = getelementptr inbounds nuw %struct.Vec_Ptr_t_, ptr %5, i32 0, i32 2
  %7 = load ptr, ptr %6, align 8, !tbaa !112
  %8 = load i32, ptr %4, align 4, !tbaa !21
  %9 = sext i32 %8 to i64
  %10 = getelementptr inbounds ptr, ptr %7, i64 %9
  %11 = load ptr, ptr %10, align 8, !tbaa !113
  ret ptr %11
}

; Function Attrs: inlinehint nounwind uwtable
define internal void @Vec_PtrCleanSimInfo(ptr noundef %0, i32 noundef %1, i32 noundef %2) #2 {
  %4 = alloca ptr, align 8
  %5 = alloca i32, align 4
  %6 = alloca i32, align 4
  %7 = alloca i32, align 4
  store ptr %0, ptr %4, align 8, !tbaa !109
  store i32 %1, ptr %5, align 4, !tbaa !21
  store i32 %2, ptr %6, align 4, !tbaa !21
  call void @llvm.lifetime.start.p0(i64 4, ptr %7) #11
  store i32 0, ptr %7, align 4, !tbaa !21
  br label %8

8:                                                ; preds = %27, %3
  %9 = load i32, ptr %7, align 4, !tbaa !21
  %10 = load ptr, ptr %4, align 8, !tbaa !109
  %11 = getelementptr inbounds nuw %struct.Vec_Ptr_t_, ptr %10, i32 0, i32 1
  %12 = load i32, ptr %11, align 4, !tbaa !110
  %13 = icmp slt i32 %9, %12
  br i1 %13, label %14, label %30

14:                                               ; preds = %8
  %15 = load ptr, ptr %4, align 8, !tbaa !109
  %16 = load i32, ptr %7, align 4, !tbaa !21
  %17 = call ptr @Vec_PtrEntry(ptr noundef %15, i32 noundef %16)
  %18 = load i32, ptr %5, align 4, !tbaa !21
  %19 = mul nsw i32 4, %18
  %20 = sext i32 %19 to i64
  %21 = getelementptr inbounds i8, ptr %17, i64 %20
  %22 = load i32, ptr %6, align 4, !tbaa !21
  %23 = load i32, ptr %5, align 4, !tbaa !21
  %24 = sub nsw i32 %22, %23
  %25 = mul nsw i32 4, %24
  %26 = sext i32 %25 to i64
  call void @llvm.memset.p0.i64(ptr align 1 %21, i8 0, i64 %26, i1 false)
  br label %27

27:                                               ; preds = %14
  %28 = load i32, ptr %7, align 4, !tbaa !21
  %29 = add nsw i32 %28, 1
  store i32 %29, ptr %7, align 4, !tbaa !21
  br label %8, !llvm.loop !171

30:                                               ; preds = %8
  call void @llvm.lifetime.end.p0(i64 4, ptr %7) #11
  ret void
}

; Function Attrs: inlinehint nounwind uwtable
define internal void @Vec_PtrReallocSimInfo(ptr noundef %0) #2 {
  %2 = alloca ptr, align 8
  %3 = alloca ptr, align 8
  %4 = alloca i32, align 4
  %5 = alloca i32, align 4
  store ptr %0, ptr %2, align 8, !tbaa !109
  call void @llvm.lifetime.start.p0(i64 8, ptr %3) #11
  call void @llvm.lifetime.start.p0(i64 4, ptr %4) #11
  call void @llvm.lifetime.start.p0(i64 4, ptr %5) #11
  %6 = load ptr, ptr %2, align 8, !tbaa !109
  %7 = call ptr @Vec_PtrEntry(ptr noundef %6, i32 noundef 1)
  %8 = load ptr, ptr %2, align 8, !tbaa !109
  %9 = call ptr @Vec_PtrEntry(ptr noundef %8, i32 noundef 0)
  %10 = ptrtoint ptr %7 to i64
  %11 = ptrtoint ptr %9 to i64
  %12 = sub i64 %10, %11
  %13 = sdiv exact i64 %12, 4
  %14 = trunc i64 %13 to i32
  store i32 %14, ptr %4, align 4, !tbaa !21
  %15 = load ptr, ptr %2, align 8, !tbaa !109
  %16 = call i32 @Vec_PtrSize(ptr noundef %15)
  %17 = load i32, ptr %4, align 4, !tbaa !21
  %18 = mul nsw i32 2, %17
  %19 = call ptr @Vec_PtrAllocSimInfo(i32 noundef %16, i32 noundef %18)
  store ptr %19, ptr %3, align 8, !tbaa !109
  store i32 0, ptr %5, align 4, !tbaa !21
  br label %20

20:                                               ; preds = %36, %1
  %21 = load i32, ptr %5, align 4, !tbaa !21
  %22 = load ptr, ptr %2, align 8, !tbaa !109
  %23 = getelementptr inbounds nuw %struct.Vec_Ptr_t_, ptr %22, i32 0, i32 1
  %24 = load i32, ptr %23, align 4, !tbaa !110
  %25 = icmp slt i32 %21, %24
  br i1 %25, label %26, label %39

26:                                               ; preds = %20
  %27 = load ptr, ptr %3, align 8, !tbaa !109
  %28 = load i32, ptr %5, align 4, !tbaa !21
  %29 = call ptr @Vec_PtrEntry(ptr noundef %27, i32 noundef %28)
  %30 = load ptr, ptr %2, align 8, !tbaa !109
  %31 = load i32, ptr %5, align 4, !tbaa !21
  %32 = call ptr @Vec_PtrEntry(ptr noundef %30, i32 noundef %31)
  %33 = load i32, ptr %4, align 4, !tbaa !21
  %34 = mul nsw i32 %33, 4
  %35 = sext i32 %34 to i64
  call void @llvm.memcpy.p0.p0.i64(ptr align 1 %29, ptr align 1 %32, i64 %35, i1 false)
  br label %36

36:                                               ; preds = %26
  %37 = load i32, ptr %5, align 4, !tbaa !21
  %38 = add nsw i32 %37, 1
  store i32 %38, ptr %5, align 4, !tbaa !21
  br label %20, !llvm.loop !172

39:                                               ; preds = %20
  %40 = load ptr, ptr %2, align 8, !tbaa !109
  %41 = getelementptr inbounds nuw %struct.Vec_Ptr_t_, ptr %40, i32 0, i32 2
  %42 = load ptr, ptr %41, align 8, !tbaa !112
  %43 = icmp ne ptr %42, null
  br i1 %43, label %44, label %50

44:                                               ; preds = %39
  %45 = load ptr, ptr %2, align 8, !tbaa !109
  %46 = getelementptr inbounds nuw %struct.Vec_Ptr_t_, ptr %45, i32 0, i32 2
  %47 = load ptr, ptr %46, align 8, !tbaa !112
  call void @free(ptr noundef %47) #11
  %48 = load ptr, ptr %2, align 8, !tbaa !109
  %49 = getelementptr inbounds nuw %struct.Vec_Ptr_t_, ptr %48, i32 0, i32 2
  store ptr null, ptr %49, align 8, !tbaa !112
  br label %51

50:                                               ; preds = %39
  br label %51

51:                                               ; preds = %50, %44
  %52 = load ptr, ptr %3, align 8, !tbaa !109
  %53 = getelementptr inbounds nuw %struct.Vec_Ptr_t_, ptr %52, i32 0, i32 2
  %54 = load ptr, ptr %53, align 8, !tbaa !112
  %55 = load ptr, ptr %2, align 8, !tbaa !109
  %56 = getelementptr inbounds nuw %struct.Vec_Ptr_t_, ptr %55, i32 0, i32 2
  store ptr %54, ptr %56, align 8, !tbaa !112
  %57 = load ptr, ptr %3, align 8, !tbaa !109
  %58 = getelementptr inbounds nuw %struct.Vec_Ptr_t_, ptr %57, i32 0, i32 2
  store ptr null, ptr %58, align 8, !tbaa !112
  %59 = load ptr, ptr %3, align 8, !tbaa !109
  %60 = icmp ne ptr %59, null
  br i1 %60, label %61, label %63

61:                                               ; preds = %51
  %62 = load ptr, ptr %3, align 8, !tbaa !109
  call void @free(ptr noundef %62) #11
  store ptr null, ptr %3, align 8, !tbaa !109
  br label %64

63:                                               ; preds = %51
  br label %64

64:                                               ; preds = %63, %61
  call void @llvm.lifetime.end.p0(i64 4, ptr %5) #11
  call void @llvm.lifetime.end.p0(i64 4, ptr %4) #11
  call void @llvm.lifetime.end.p0(i64 8, ptr %3) #11
  ret void
}

; Function Attrs: nounwind uwtable
define void @Fra_ClausSimInfoRealloc(ptr noundef %0) #0 {
  %2 = alloca ptr, align 8
  store ptr %0, ptr %2, align 8, !tbaa !3
  %3 = load ptr, ptr %2, align 8, !tbaa !3
  %4 = getelementptr inbounds nuw %struct.Clu_Man_t_, ptr %3, i32 0, i32 31
  %5 = load ptr, ptr %4, align 8, !tbaa !168
  call void @Vec_PtrReallocSimInfo(ptr noundef %5)
  %6 = load ptr, ptr %2, align 8, !tbaa !3
  %7 = getelementptr inbounds nuw %struct.Clu_Man_t_, ptr %6, i32 0, i32 31
  %8 = load ptr, ptr %7, align 8, !tbaa !168
  %9 = load ptr, ptr %2, align 8, !tbaa !3
  %10 = getelementptr inbounds nuw %struct.Clu_Man_t_, ptr %9, i32 0, i32 33
  %11 = load i32, ptr %10, align 4, !tbaa !169
  %12 = sdiv i32 %11, 32
  %13 = load ptr, ptr %2, align 8, !tbaa !3
  %14 = getelementptr inbounds nuw %struct.Clu_Man_t_, ptr %13, i32 0, i32 33
  %15 = load i32, ptr %14, align 4, !tbaa !169
  %16 = mul nsw i32 2, %15
  %17 = sdiv i32 %16, 32
  call void @Vec_PtrCleanSimInfo(ptr noundef %8, i32 noundef %12, i32 noundef %17)
  %18 = load ptr, ptr %2, align 8, !tbaa !3
  %19 = getelementptr inbounds nuw %struct.Clu_Man_t_, ptr %18, i32 0, i32 33
  %20 = load i32, ptr %19, align 4, !tbaa !169
  %21 = mul nsw i32 %20, 2
  store i32 %21, ptr %19, align 4, !tbaa !169
  ret void
}