; Function Attrs: nounwind uwtable
define void @Fra_ClausSimInfoRealloc(ptr noundef captures(none) %0) local_unnamed_addr #0 {
  %2 = getelementptr inbounds nuw i8, ptr %0, i64 168
  %3 = load ptr, ptr %2, align 8, !tbaa !159
  %4 = getelementptr i8, ptr %3, i64 8
  %.val24.i = load ptr, ptr %4, align 8, !tbaa !31
  %5 = getelementptr inbounds nuw i8, ptr %.val24.i, i64 8
  %6 = load ptr, ptr %5, align 8, !tbaa !33
  %7 = load ptr, ptr %.val24.i, align 8, !tbaa !33
  %8 = ptrtoint ptr %6 to i64
  %9 = ptrtoint ptr %7 to i64
  %10 = sub i64 %8, %9
  %11 = lshr exact i64 %10, 2
  %12 = trunc i64 %11 to i32
  %13 = getelementptr i8, ptr %3, i64 4
  %.val25.i = load i32, ptr %13, align 4, !tbaa !97
  %14 = shl nsw i32 %12, 1
  %15 = sext i32 %14 to i64
  %16 = shl nsw i64 %15, 2
  %17 = add nsw i64 %16, 8
  %18 = sext i32 %.val25.i to i64
  %19 = mul i64 %17, %18
  %20 = tail call noalias ptr @malloc(i64 noundef %19) #24
  %21 = getelementptr inbounds ptr, ptr %20, i64 %18
  %22 = icmp sgt i32 %.val25.i, 0
  br i1 %22, label %.lr.ph.preheader.i.i, label %._crit_edge.thread.i

.lr.ph.preheader.i.i:                             ; preds = %1
  %wide.trip.count.i.i = zext nneg i32 %.val25.i to i64
  br label %.lr.ph.i.i

.lr.ph.i.i:                                       ; preds = %.lr.ph.i.i, %.lr.ph.preheader.i.i
  %indvars.iv.i.i = phi i64 [ 0, %.lr.ph.preheader.i.i ], [ %indvars.iv.next.i.i, %.lr.ph.i.i ]
  %23 = mul nsw i64 %indvars.iv.i.i, %15
  %24 = getelementptr inbounds i32, ptr %21, i64 %23
  %25 = getelementptr inbounds nuw ptr, ptr %20, i64 %indvars.iv.i.i
  store ptr %24, ptr %25, align 8, !tbaa !33
  %indvars.iv.next.i.i = add nuw nsw i64 %indvars.iv.i.i, 1
  %exitcond.not.i.i = icmp eq i64 %indvars.iv.next.i.i, %wide.trip.count.i.i
  br i1 %exitcond.not.i.i, label %Vec_PtrAllocSimInfo.exit.i, label %.lr.ph.i.i, !llvm.loop !163

Vec_PtrAllocSimInfo.exit.i:                       ; preds = %.lr.ph.i.i
  %26 = shl nsw i32 %12, 2
  %27 = sext i32 %26 to i64
  br label %28

28:                                               ; preds = %28, %Vec_PtrAllocSimInfo.exit.i
  %indvars.iv.i = phi i64 [ 0, %Vec_PtrAllocSimInfo.exit.i ], [ %indvars.iv.next.i, %28 ]
  %29 = getelementptr inbounds nuw ptr, ptr %20, i64 %indvars.iv.i
  %30 = load ptr, ptr %29, align 8, !tbaa !33
  %.val.i = load ptr, ptr %4, align 8, !tbaa !31
  %31 = getelementptr inbounds nuw ptr, ptr %.val.i, i64 %indvars.iv.i
  %32 = load ptr, ptr %31, align 8, !tbaa !33
  tail call void @llvm.memcpy.p0.p0.i64(ptr align 1 %30, ptr align 1 %32, i64 %27, i1 false)
  %indvars.iv.next.i = add nuw nsw i64 %indvars.iv.i, 1
  %33 = load i32, ptr %13, align 4, !tbaa !97
  %34 = sext i32 %33 to i64
  %35 = icmp slt i64 %indvars.iv.next.i, %34
  br i1 %35, label %28, label %._crit_edge.loopexit.i, !llvm.loop !164

._crit_edge.loopexit.i:                           ; preds = %28
  %.pre.i = load ptr, ptr %4, align 8, !tbaa !31
  %.not.i = icmp eq ptr %.pre.i, null
  br i1 %.not.i, label %Vec_PtrReallocSimInfo.exit, label %._crit_edge.thread.i

._crit_edge.thread.i:                             ; preds = %._crit_edge.loopexit.i, %1
  %36 = phi ptr [ %.pre.i, %._crit_edge.loopexit.i ], [ %.val24.i, %1 ]
  tail call void @free(ptr noundef nonnull %36) #23
  br label %Vec_PtrReallocSimInfo.exit

Vec_PtrReallocSimInfo.exit:                       ; preds = %._crit_edge.loopexit.i, %._crit_edge.thread.i
  store ptr %20, ptr %4, align 8, !tbaa !31
  %37 = load ptr, ptr %2, align 8, !tbaa !159
  %38 = getelementptr inbounds nuw i8, ptr %0, i64 180
  %39 = getelementptr inbounds nuw i8, ptr %37, i64 4
  %40 = load i32, ptr %39, align 4, !tbaa !97
  %41 = icmp sgt i32 %40, 0
  br i1 %41, label %.lr.ph.i, label %Vec_PtrCleanSimInfo.exit

.lr.ph.i:                                         ; preds = %Vec_PtrReallocSimInfo.exit
  %42 = load i32, ptr %38, align 4, !tbaa !160
  %43 = sdiv i32 %42, 16
  %44 = sdiv i32 %42, 32
  %45 = getelementptr i8, ptr %37, i64 8
  %46 = shl nsw i32 %44, 2
  %47 = sext i32 %46 to i64
  %48 = sub nsw i32 %43, %44
  %49 = shl nsw i32 %48, 2
  %50 = sext i32 %49 to i64
  br label %51

51:                                               ; preds = %51, %.lr.ph.i
  %indvars.iv.i5 = phi i64 [ 0, %.lr.ph.i ], [ %indvars.iv.next.i7, %51 ]
  %.val.i6 = load ptr, ptr %45, align 8, !tbaa !31
  %52 = getelementptr inbounds nuw ptr, ptr %.val.i6, i64 %indvars.iv.i5
  %53 = load ptr, ptr %52, align 8, !tbaa !33
  %54 = getelementptr inbounds i8, ptr %53, i64 %47
  tail call void @llvm.memset.p0.i64(ptr align 1 %54, i8 0, i64 %50, i1 false)
  %indvars.iv.next.i7 = add nuw nsw i64 %indvars.iv.i5, 1
  %55 = load i32, ptr %39, align 4, !tbaa !97
  %56 = sext i32 %55 to i64
  %57 = icmp slt i64 %indvars.iv.next.i7, %56
  br i1 %57, label %51, label %Vec_PtrCleanSimInfo.exit, !llvm.loop !161

Vec_PtrCleanSimInfo.exit:                         ; preds = %51, %Vec_PtrReallocSimInfo.exit
  %58 = load i32, ptr %38, align 4, !tbaa !160
  %59 = shl nsw i32 %58, 1
  store i32 %59, ptr %38, align 4, !tbaa !160
  ret void
}